ccopy_reg
_reconstructor
p1
(csklearn.svm.classes
LinearSVC
p2
c__builtin__
object
p3
NtRp4
(dp5
S'loss'
p6
S'squared_hinge'
p7
sS'C'
F1
sS'max_iter'
p8
I1000
sS'verbose'
p9
I0
sS'fit_intercept'
p10
I01
sS'classes_'
p11
cnumpy.core.multiarray
_reconstruct
p12
(cnumpy
ndarray
p13
(I0
tS'b'
tRp14
(I1
(I2
tcnumpy
dtype
p15
(S'f8'
I0
I1
tRp16
(I3
S'<'
NNNI-1
I-1
I0
tbI00
S'\x00\x00\x00\x00\x00\x00\x00\x00\x00\x00\x00\x00\x00\x00\xf0?'
tbsS'class_weight'
p17
NsS'n_iter_'
p18
cnumpy.core.multiarray
scalar
p19
(g15
(S'i4'
I0
I1
tRp20
(I3
S'<'
NNNI-1
I-1
I0
tbS'\xe8\x03\x00\x00'
tRp21
sS'penalty'
p22
S'l2'
p23
sS'multi_class'
p24
S'ovr'
p25
sS'random_state'
p26
NsS'_sklearn_version'
p27
S'0.18.1'
p28
sS'dual'
p29
I01
sS'tol'
p30
F0.0001
sS'coef_'
p31
g12
(g13
(I0
tS'b'
tRp32
(I1
(I1
I9
tg16
I01
S'5\x95V\x8e+\x0b\xc8?\xde\xb9J\xddW\nr\xbf\xec\x83\xfc\xf5\x92\x9f\x8e\xbfS\xbbc\xc6\xc4\xf2w?`_\x1e\x13@T\xf7\xbe\xcb\xedK\x18\xd5g\x1b?\xca(W\x19\xd3LV\xbf\x02j.\xa3\xca\x01\xc0>q \xe2\xad\x8f\x06\xeb\xbe'
tbsS'intercept_'
p33
g12
(g13
(I0
tS'b'
tRp34
(I1
(I1
tg16
I00
S'\x90\x98*skW\xd2?'
tbsS'intercept_scaling'
p35
I1
sb.